target datalayout = "e-m:e-p270:32:32-p271:32:32-p272:64:64-i64:64-i128:128-f80:128-n8:16:32:64-S128"
target triple = "x86_64-pc-linux-gnu"

%struct.FT_FaceRec_ = type { i64, i64, i64, i64, i64, ptr, ptr, i32, ptr, i32, ptr, %struct.FT_Generic_, %struct.FT_BBox_, i16, i16, i16, i16, i16, i16, i16, i16, ptr, ptr, ptr, ptr, ptr, ptr, %struct.FT_ListRec_, %struct.FT_Generic_, ptr, ptr }
%struct.FT_BBox_ = type { i64, i64, i64, i64 }
%struct.FT_ListRec_ = type { ptr, ptr }
%struct.FT_Generic_ = type { ptr, ptr }
%struct.TT_FaceRec_ = type { %struct.FT_FaceRec_, %struct.TTC_HeaderRec_, i64, i16, ptr, %struct.TT_Header_, %struct.TT_HoriHeader_, %struct.TT_MaxProfile_, i8, %struct.TT_VertHeader_, i16, %struct.TT_NameTableRec_, %struct.TT_OS2_, %struct.TT_Postscript_, ptr, i64, ptr, ptr, ptr, ptr, ptr, ptr, ptr, ptr, ptr, ptr, ptr, ptr, %struct.TT_Gasp_, %struct.TT_PCLT_, i64, ptr, %struct.TT_Post_NamesRec_, %struct.FT_Palette_Data_, i16, ptr, i8, %struct.FT_Color_, i64, ptr, i64, ptr, i64, ptr, ptr, %struct.FT_Generic_, ptr, i64, i64, i8, i8, ptr, i32, ptr, i32, i32, ptr, i64, i64, i64, ptr, ptr, i64, i32, i64, ptr, ptr, i64, i32, i32, ptr, ptr, i64, i32, i32, i32, %struct.TT_BDFRec_, i64, i64, i64, i64, ptr, ptr, ptr }
%struct.TTC_HeaderRec_ = type { i64, i64, i64, ptr }
%struct.TT_Header_ = type { i64, i64, i64, i64, i16, i16, [2 x i64], [2 x i64], i16, i16, i16, i16, i16, i16, i16, i16, i16 }
%struct.TT_HoriHeader_ = type { i64, i16, i16, i16, i16, i16, i16, i16, i16, i16, i16, [4 x i16], i16, i16, ptr, ptr }
%struct.TT_MaxProfile_ = type { i64, i16, i16, i16, i16, i16, i16, i16, i16, i16, i16, i16, i16, i16, i16 }
%struct.TT_VertHeader_ = type { i64, i16, i16, i16, i16, i16, i16, i16, i16, i16, i16, [4 x i16], i16, i16, ptr, ptr }
%struct.TT_NameTableRec_ = type { i16, i32, i32, ptr, i32, ptr, ptr }
%struct.TT_OS2_ = type { i16, i16, i16, i16, i16, i16, i16, i16, i16, i16, i16, i16, i16, i16, i16, i16, [10 x i8], i64, i64, i64, i64, [4 x i8], i16, i16, i16, i16, i16, i16, i16, i16, i64, i64, i16, i16, i16, i16, i16, i16, i16 }
%struct.TT_Postscript_ = type { i64, i64, i16, i16, i64, i64, i64, i64, i64 }
%struct.TT_Gasp_ = type { i16, i16, ptr }
%struct.TT_PCLT_ = type { i64, i64, i16, i16, i16, i16, i16, i16, [16 x i8], [8 x i8], [6 x i8], i8, i8, i8, i8 }
%struct.TT_Post_NamesRec_ = type { i8, i16, i16, ptr, ptr }
%struct.FT_Palette_Data_ = type { i16, ptr, ptr, i16, ptr }
%struct.FT_Color_ = type { i8, i8, i8, i8 }
%struct.TT_BDFRec_ = type { ptr, ptr, ptr, i64, i32, i8 }

; Function Attrs: nounwind uwtable
define internal i32 @tt_face_load_generic_header(ptr noundef %0, ptr noundef %1, i64 noundef %2) #0 {
  %4 = alloca ptr, align 8
  %5 = alloca ptr, align 8
  %6 = alloca i64, align 8
  %7 = alloca i32, align 4
  %8 = alloca ptr, align 8
  store ptr %0, ptr %4, align 8
  store ptr %1, ptr %5, align 8
  store i64 %2, ptr %6, align 8
  %9 = load ptr, ptr %4, align 8
  %10 = getelementptr inbounds %struct.TT_FaceRec_, ptr %9, i32 0, i32 16
  %11 = load ptr, ptr %10, align 8
  %12 = load ptr, ptr %4, align 8
  %13 = load i64, ptr %6, align 8
  %14 = load ptr, ptr %5, align 8
  %15 = call i32 %11(ptr noundef %12, i64 noundef %13, ptr noundef %14, ptr noundef null)
  store i32 %15, ptr %7, align 4
  %16 = load i32, ptr %7, align 4
  %17 = icmp ne i32 %16, 0
  br i1 %17, label %18, label %19

18:                                               ; preds = %3
  br label %32

19:                                               ; preds = %3
  %20 = load ptr, ptr %4, align 8
  %21 = getelementptr inbounds %struct.TT_FaceRec_, ptr %20, i32 0, i32 5
  store ptr %21, ptr %8, align 8
  %22 = load ptr, ptr %5, align 8
  %23 = load ptr, ptr %8, align 8
  %24 = call i32 @FT_Stream_ReadFields(ptr noundef %22, ptr noundef @tt_face_load_generic_header.header_fields, ptr noundef %23)
  store i32 %24, ptr %7, align 4
  %25 = icmp ne i32 %24, 0
  br i1 %25, label %26, label %27

26:                                               ; preds = %19
  br label %32

27:                                               ; preds = %19
  br label %28

28:                                               ; preds = %27
  br label %29

29:                                               ; preds = %28
  br label %30

30:                                               ; preds = %29
  br label %31

31:                                               ; preds = %30
  br label %32

32:                                               ; preds = %31, %26, %18
  %33 = load i32, ptr %7, align 4
  ret i32 %33
}

; Function Attrs: nounwind uwtable
define internal i32 @tt_face_load_bhed(ptr noundef %0, ptr noundef %1) #0 {
  %3 = alloca ptr, align 8
  %4 = alloca ptr, align 8
  store ptr %0, ptr %3, align 8
  store ptr %1, ptr %4, align 8
  %5 = load ptr, ptr %3, align 8
  %6 = load ptr, ptr %4, align 8
  %7 = call i32 @tt_face_load_generic_header(ptr noundef %5, ptr noundef %6, i64 noundef 1651008868)
  ret i32 %7
}