; Function Attrs: nounwind uwtable
define internal i32 @tt_face_load_bhed(ptr noundef %0, ptr noundef %1) #0 {
  %3 = getelementptr inbounds i8, ptr %0, i64 832
  %4 = load ptr, ptr %3, align 8
  %5 = tail call i32 %4(ptr noundef %0, i64 noundef 1651008868, ptr noundef %1, ptr noundef null) #26
  %.not.i = icmp eq i32 %5, 0
  br i1 %.not.i, label %6, label %tt_face_load_generic_header.exit

6:                                                ; preds = %2
  %7 = getelementptr inbounds i8, ptr %0, i64 304
  %8 = tail call i32 @FT_Stream_ReadFields(ptr noundef %1, ptr noundef nonnull @tt_face_load_generic_header.header_fields, ptr noundef nonnull %7) #26
  br label %tt_face_load_generic_header.exit

tt_face_load_generic_header.exit:                 ; preds = %2, %6
  %.0.i = phi i32 [ %5, %2 ], [ %8, %6 ]
  ret i32 %.0.i
}